target datalayout = "e-m:e-p270:32:32-p271:32:32-p272:64:64-i64:64-i128:128-f80:128-n8:16:32:64-S128"
target triple = "x86_64-pc-linux-gnu"

; Function Attrs: mustprogress uwtable
define void @_ZN32pxrInternal_v0_24__pxrReserved__22UsdImagingGprimAdapter9MarkDirtyERKNS_7UsdPrimERKNS_7SdfPathEjPNS_20UsdImagingIndexProxyE(ptr noundef nonnull align 8 dereferenceable(32) %0, ptr noundef nonnull align 8 dereferenceable(32) %1, ptr noundef nonnull align 4 dereferenceable(8) %2, i32 noundef %3, ptr noundef %4) unnamed_addr #0 align 2 {
  %6 = alloca ptr, align 8
  %7 = alloca ptr, align 8
  %8 = alloca ptr, align 8
  %9 = alloca i32, align 4
  %10 = alloca ptr, align 8
  store ptr %0, ptr %6, align 8
  store ptr %1, ptr %7, align 8
  store ptr %2, ptr %8, align 8
  store i32 %3, ptr %9, align 4
  store ptr %4, ptr %10, align 8
  %11 = load ptr, ptr %10, align 8
  %12 = load ptr, ptr %8, align 8
  %13 = load i32, ptr %9, align 4
  call void @_ZN32pxrInternal_v0_24__pxrReserved__20UsdImagingIndexProxy14MarkRprimDirtyERKNS_7SdfPathEj(ptr noundef nonnull align 8 dereferenceable(184) %11, ptr noundef nonnull align 4 dereferenceable(8) %12, i32 noundef %13)
  %14 = load i32, ptr %9, align 4
  %15 = load ptr, ptr %8, align 8
  %16 = call noundef zeroext i1 @_ZN32pxrInternal_v0_24__pxrReserved__15HdChangeTracker17IsAnyPrimvarDirtyEjRKNS_7SdfPathE(i32 noundef %14, ptr noundef nonnull align 4 dereferenceable(8) %15)
  br i1 %16, label %21, label %17

17:                                               ; preds = %5
  %18 = load i32, ptr %9, align 4
  %19 = and i32 %18, 128
  %20 = icmp ne i32 %19, 0
  br i1 %20, label %21, label %24

21:                                               ; preds = %17, %5
  %22 = load ptr, ptr %10, align 8
  %23 = load ptr, ptr %8, align 8
  call void @_ZN32pxrInternal_v0_24__pxrReserved__20UsdImagingIndexProxy20RequestUpdateForTimeERKNS_7SdfPathE(ptr noundef nonnull align 8 dereferenceable(184) %22, ptr noundef nonnull align 4 dereferenceable(8) %23)
  br label %24

24:                                               ; preds = %21, %17
  ret void
}