; Function Attrs: mustprogress uwtable
define void @_ZN32pxrInternal_v0_24__pxrReserved__22UsdImagingGprimAdapter9MarkDirtyERKNS_7UsdPrimERKNS_7SdfPathEjPNS_20UsdImagingIndexProxyE(ptr nocapture nonnull readnone align 8 %0, ptr nocapture nonnull readnone align 8 %1, ptr noundef nonnull align 4 dereferenceable(8) %2, i32 noundef %3, ptr noundef nonnull %4) unnamed_addr #0 align 2 {
  tail call void @_ZN32pxrInternal_v0_24__pxrReserved__20UsdImagingIndexProxy14MarkRprimDirtyERKNS_7SdfPathEj(ptr noundef nonnull align 8 dereferenceable(184) %4, ptr noundef nonnull align 4 dereferenceable(8) %2, i32 noundef %3)
  %6 = tail call noundef zeroext i1 @_ZN32pxrInternal_v0_24__pxrReserved__15HdChangeTracker17IsAnyPrimvarDirtyEjRKNS_7SdfPathE(i32 noundef %3, ptr noundef nonnull align 4 dereferenceable(8) %2)
  %7 = and i32 %3, 128
  %.not = icmp ne i32 %7, 0
  %or.cond.not = or i1 %.not, %6
  br i1 %or.cond.not, label %8, label %9

8:                                                ; preds = %5
  tail call void @_ZN32pxrInternal_v0_24__pxrReserved__20UsdImagingIndexProxy20RequestUpdateForTimeERKNS_7SdfPathE(ptr noundef nonnull align 8 dereferenceable(184) %4, ptr noundef nonnull align 4 dereferenceable(8) %2)
  br label %9

9:                                                ; preds = %5, %8
  ret void
}